target datalayout = "e-m:e-p270:32:32-p271:32:32-p272:64:64-i64:64-i128:128-f80:128-n8:16:32:64-S128"
target triple = "x86_64-pc-linux-gnu"

@gv_fixLocale.save_locale = internal global ptr null, align 8
@gv_fixLocale.cnt = internal global i32 0, align 4
@.str.34 = private unnamed_addr constant [2 x i8] c"C\00", align 1
@stderr = external global ptr, align 8
@.str.41 = private unnamed_addr constant [49 x i8] c"out of memory when trying to allocate %zu bytes\0A\00", align 1

; Function Attrs: inlinehint nounwind uwtable
define internal ptr @gv_strdup(ptr noundef %0) #3 {
  %2 = alloca ptr, align 8
  %3 = alloca ptr, align 8
  store ptr %0, ptr %2, align 8, !tbaa !9
  call void @llvm.lifetime.start.p0(i64 8, ptr %3) #15
  %4 = load ptr, ptr %2, align 8, !tbaa !9
  %5 = call noalias ptr @strdup(ptr noundef %4) #15
  store ptr %5, ptr %3, align 8, !tbaa !9
  %6 = load ptr, ptr %3, align 8, !tbaa !9
  %7 = icmp eq ptr %6, null
  br i1 %7, label %8, label %14

8:                                                ; preds = %1
  %9 = load ptr, ptr @stderr, align 8, !tbaa !68
  %10 = load ptr, ptr %2, align 8, !tbaa !9
  %11 = call i64 @strlen(ptr noundef %10) #16
  %12 = add i64 %11, 1
  %13 = call i32 (ptr, ptr, ...) @fprintf(ptr noundef %9, ptr noundef @.str.41, i64 noundef %12) #15
  call void @graphviz_exit(i32 noundef 1) #17
  unreachable

14:                                               ; preds = %1
  %15 = load ptr, ptr %3, align 8, !tbaa !9
  call void @llvm.lifetime.end.p0(i64 8, ptr %3) #15
  ret ptr %15
}

; Function Attrs: nounwind uwtable
define void @gv_fixLocale(i32 noundef %0) #0 {
  %2 = alloca i32, align 4
  store i32 %0, ptr %2, align 4, !tbaa !44
  %3 = load i32, ptr %2, align 4, !tbaa !44
  %4 = icmp ne i32 %3, 0
  br i1 %4, label %5, label %15

5:                                                ; preds = %1
  %6 = load i32, ptr @gv_fixLocale.cnt, align 4, !tbaa !44
  %7 = add nsw i32 %6, 1
  store i32 %7, ptr @gv_fixLocale.cnt, align 4, !tbaa !44
  %8 = load i32, ptr @gv_fixLocale.cnt, align 4, !tbaa !44
  %9 = icmp eq i32 %8, 1
  br i1 %9, label %10, label %14

10:                                               ; preds = %5
  %11 = call ptr @setlocale(i32 noundef 1, ptr noundef null) #15
  %12 = call ptr @gv_strdup(ptr noundef %11)
  store ptr %12, ptr @gv_fixLocale.save_locale, align 8, !tbaa !9
  %13 = call ptr @setlocale(i32 noundef 1, ptr noundef @.str.34) #15
  br label %14

14:                                               ; preds = %10, %5
  br label %29

15:                                               ; preds = %1
  %16 = load i32, ptr @gv_fixLocale.cnt, align 4, !tbaa !44
  %17 = icmp sgt i32 %16, 0
  br i1 %17, label %18, label %28

18:                                               ; preds = %15
  %19 = load i32, ptr @gv_fixLocale.cnt, align 4, !tbaa !44
  %20 = add nsw i32 %19, -1
  store i32 %20, ptr @gv_fixLocale.cnt, align 4, !tbaa !44
  %21 = load i32, ptr @gv_fixLocale.cnt, align 4, !tbaa !44
  %22 = icmp eq i32 %21, 0
  br i1 %22, label %23, label %27

23:                                               ; preds = %18
  %24 = load ptr, ptr @gv_fixLocale.save_locale, align 8, !tbaa !9
  %25 = call ptr @setlocale(i32 noundef 1, ptr noundef %24) #15
  %26 = load ptr, ptr @gv_fixLocale.save_locale, align 8, !tbaa !9
  call void @free(ptr noundef %26) #15
  br label %27

27:                                               ; preds = %23, %18
  br label %28

28:                                               ; preds = %27, %15
  br label %29

29:                                               ; preds = %28, %14
  ret void
}