; Function Attrs: nounwind uwtable
define void @gv_fixLocale(i32 noundef %0) local_unnamed_addr #0 {
  %.not = icmp eq i32 %0, 0
  %2 = load i32, ptr @gv_fixLocale.cnt, align 4, !tbaa !39
  br i1 %.not, label %16, label %3

3:                                                ; preds = %1
  %4 = add nsw i32 %2, 1
  store i32 %4, ptr @gv_fixLocale.cnt, align 4, !tbaa !39
  %5 = icmp eq i32 %2, 0
  br i1 %5, label %6, label %25

6:                                                ; preds = %3
  %7 = tail call ptr @setlocale(i32 noundef 1, ptr noundef null) #27
  %8 = tail call noalias ptr @strdup(ptr noundef readonly %7) #27
  %9 = icmp eq ptr %8, null
  br i1 %9, label %10, label %gv_strdup.exit

10:                                               ; preds = %6
  %11 = load ptr, ptr @stderr, align 8, !tbaa !6
  %12 = tail call i64 @strlen(ptr noundef nonnull readonly dereferenceable(1) %7) #31
  %13 = add i64 %12, 1
  %14 = tail call i32 (ptr, ptr, ...) @fprintf(ptr noundef %11, ptr noundef nonnull @.str.41, i64 noundef %13) #29
  tail call fastcc void @graphviz_exit() #30
  unreachable

gv_strdup.exit:                                   ; preds = %6
  store ptr %8, ptr @gv_fixLocale.save_locale, align 8, !tbaa !97
  %15 = tail call ptr @setlocale(i32 noundef 1, ptr noundef nonnull @.str.34) #27
  br label %25

16:                                               ; preds = %1
  %17 = icmp sgt i32 %2, 0
  br i1 %17, label %18, label %25

18:                                               ; preds = %16
  %19 = add nsw i32 %2, -1
  store i32 %19, ptr @gv_fixLocale.cnt, align 4, !tbaa !39
  %20 = icmp eq i32 %19, 0
  br i1 %20, label %21, label %25

21:                                               ; preds = %18
  %22 = load ptr, ptr @gv_fixLocale.save_locale, align 8, !tbaa !97
  %23 = tail call ptr @setlocale(i32 noundef 1, ptr noundef %22) #27
  %24 = load ptr, ptr @gv_fixLocale.save_locale, align 8, !tbaa !97
  tail call void @free(ptr noundef %24) #27
  br label %25

25:                                               ; preds = %16, %21, %18, %3, %gv_strdup.exit
  ret void
}